; ModuleID = 'source-C-CXX/27/1218.c'
source_filename = "source-C-CXX/27/1218.c"
target datalayout = "e-m:e-p270:32:32-p271:32:32-p272:64:64-i64:64-f80:128-n8:16:32:64-S128"
target triple = "x86_64-pc-linux-gnu"

@.str = private unnamed_addr constant [4 x i8] c"%d,\00", align 1
@.str.1 = private unnamed_addr constant [4 x i8] c"%d\0A\00", align 1

; Function Attrs: nounwind sspstrong uwtable
define dso_local void @main() local_unnamed_addr #0 {
  %1 = alloca [30000 x i8], align 16
  %2 = getelementptr inbounds [30000 x i8], [30000 x i8]* %1, i64 0, i64 0
  call void @llvm.lifetime.start.p0i8(i64 30000, i8* nonnull %2) #4
  %3 = call i32 (i8*, ...) bitcast (i32 (...)* @gets to i32 (i8*, ...)*)(i8* nonnull %2) #4
  br label %4

4:                                                ; preds = %29, %0
  %5 = phi i32 [ -1, %0 ], [ %23, %29 ]
  %6 = icmp eq i32 %5, -1
  br i1 %6, label %12, label %7

7:                                                ; preds = %4
  %8 = sext i32 %5 to i64
  %9 = getelementptr inbounds [30000 x i8], [30000 x i8]* %1, i64 0, i64 %8
  %10 = load i8, i8* %9, align 1, !tbaa !5
  %11 = icmp eq i8 %10, 0
  br i1 %11, label %30, label %12

12:                                               ; preds = %4, %7
  %13 = phi i64 [ -1, %4 ], [ %8, %7 ]
  br label %14

14:                                               ; preds = %12, %20
  %15 = phi i64 [ %17, %20 ], [ %13, %12 ]
  %16 = phi i32 [ %21, %20 ], [ 0, %12 ]
  %17 = add nsw i64 %15, 1
  %18 = getelementptr inbounds [30000 x i8], [30000 x i8]* %1, i64 0, i64 %17
  %19 = load i8, i8* %18, align 1, !tbaa !5
  switch i8 %19, label %20 [
    i8 32, label %22
    i8 0, label %22
  ]

20:                                               ; preds = %14
  %21 = add nuw nsw i32 %16, 1
  br label %14, !llvm.loop !8

22:                                               ; preds = %14, %14
  %23 = trunc i64 %17 to i32
  %24 = icmp eq i32 %16, 0
  br i1 %24, label %29, label %25

25:                                               ; preds = %22
  %26 = icmp eq i8 %19, 32
  %27 = select i1 %26, i8* getelementptr inbounds ([4 x i8], [4 x i8]* @.str, i64 0, i64 0), i8* getelementptr inbounds ([4 x i8], [4 x i8]* @.str.1, i64 0, i64 0)
  %28 = call i32 (i8*, ...) @printf(i8* nonnull dereferenceable(1) %27, i32 %16)
  br label %29

29:                                               ; preds = %25, %22
  br label %4, !llvm.loop !10

30:                                               ; preds = %7
  call void @llvm.lifetime.end.p0i8(i64 30000, i8* nonnull %2) #4
  ret void
}

; Function Attrs: argmemonly mustprogress nofree nosync nounwind willreturn
declare void @llvm.lifetime.start.p0i8(i64 immarg, i8* nocapture) #1

declare i32 @gets(...) local_unnamed_addr #2

; Function Attrs: nofree nounwind
declare noundef i32 @printf(i8* nocapture noundef readonly, ...) local_unnamed_addr #3

; Function Attrs: argmemonly mustprogress nofree nosync nounwind willreturn
declare void @llvm.lifetime.end.p0i8(i64 immarg, i8* nocapture) #1


!llvm.module.flags = !{!0, !1, !2, !3}
!llvm.ident = !{!4}

!0 = !{i32 1, !"wchar_size", i32 4}
!1 = !{i32 7, !"PIC Level", i32 2}
!2 = !{i32 7, !"PIE Level", i32 2}
!3 = !{i32 7, !"uwtable", i32 1}
!4 = !{!"clang version 13.0.0"}
!5 = !{!6, !6, i64 0}
!6 = !{!"omnipotent char", !7, i64 0}
!7 = !{!"Simple C/C++ TBAA"}
!8 = distinct !{!8, !9}
!9 = !{!"llvm.loop.mustprogress"}
!10 = distinct !{!10, !9}
